; Function Attrs: mustprogress uwtable
define internal noundef float @_ZN12_GLOBAL__N_15pdihsIL18BondedKernelFlavor3EEENSt9enable_ifIXooneT_LS1_0EntLi1EEfE4typeEiPKiPK9t_iparamsPA3_KfPA4_fPA3_fPK5t_pbcfPfN3gmx8ArrayRefISA_EEP8t_fcdataP12t_disresdataP12t_oriresdataPi(i32 noundef %0, ptr nocapture noundef readonly %1, ptr nocapture noundef readonly %2, ptr noundef %3, ptr noundef %4, ptr noundef %5, ptr noundef %6, float noundef %7, ptr nocapture noundef %8, ptr nocapture noundef readnone byval(%"class.gmx::ArrayRef") align 8 %9, ptr nocapture readnone %10, ptr nocapture readnone %11, ptr nocapture readnone %12, ptr nocapture readnone %13) #4 {
  %15 = alloca i32, align 4
  %16 = alloca i32, align 4
  %17 = alloca i32, align 4
  %18 = alloca [3 x float], align 4
  %19 = alloca [3 x float], align 4
  %20 = alloca [3 x float], align 4
  %21 = alloca [3 x float], align 4
  %22 = alloca [3 x float], align 4
  %23 = icmp sgt i32 %0, 0
  br i1 %23, label %.lr.ph, label %._crit_edge

.lr.ph:                                           ; preds = %14
  %24 = fsub float 1.000000e+00, %7
  %25 = zext nneg i32 %0 to i64
  br label %26

26:                                               ; preds = %.lr.ph, %.critedge
  %.067 = phi i64 [ 0, %.lr.ph ], [ %indvars.iv.next, %.critedge ]
  %.06266 = phi float [ 0.000000e+00, %.lr.ph ], [ %80, %.critedge ]
  %sext = shl i64 %.067, 32
  %27 = ashr exact i64 %sext, 32
  %28 = getelementptr i32, ptr %1, i64 %27
  %29 = getelementptr i8, ptr %28, i64 4
  %30 = load i32, ptr %29, align 4
  %31 = getelementptr i8, ptr %28, i64 8
  %32 = load i32, ptr %31, align 4
  %33 = getelementptr i8, ptr %28, i64 12
  %34 = load i32, ptr %33, align 4
  %35 = getelementptr i8, ptr %28, i64 16
  %36 = load i32, ptr %35, align 4
  %37 = sext i32 %30 to i64
  %38 = getelementptr inbounds [3 x float], ptr %3, i64 %37
  %39 = sext i32 %32 to i64
  %40 = getelementptr inbounds [3 x float], ptr %3, i64 %39
  %41 = sext i32 %34 to i64
  %42 = getelementptr inbounds [3 x float], ptr %3, i64 %41
  %43 = sext i32 %36 to i64
  %44 = getelementptr inbounds [3 x float], ptr %3, i64 %43
  %45 = call noundef float @_Z9dih_anglePKfS0_S0_S0_PK5t_pbcPfS4_S4_S4_S4_PiS5_S5_(ptr noundef %38, ptr noundef %40, ptr noundef %42, ptr noundef %44, ptr noundef %6, ptr noundef nonnull %18, ptr noundef nonnull %19, ptr noundef nonnull %20, ptr noundef nonnull %21, ptr noundef nonnull %22, ptr noundef nonnull %15, ptr noundef nonnull %16, ptr noundef nonnull %17)
  br label %46

46:                                               ; preds = %101, %26
  %indvars.iv = phi i64 [ %indvars.iv.next, %101 ], [ %27, %26 ]
  %.163 = phi float [ %80, %101 ], [ %.06266, %26 ]
  %.058 = phi float [ %87, %101 ], [ 0.000000e+00, %26 ]
  %47 = getelementptr inbounds i32, ptr %1, i64 %indvars.iv
  %48 = load i32, ptr %47, align 4
  %49 = sext i32 %48 to i64
  %50 = getelementptr inbounds %union.t_iparams, ptr %2, i64 %49
  %51 = getelementptr inbounds i8, ptr %50, i64 4
  %52 = load float, ptr %51, align 4
  %53 = getelementptr inbounds i8, ptr %50, i64 16
  %54 = load float, ptr %53, align 4
  %55 = load float, ptr %50, align 4
  %56 = getelementptr inbounds i8, ptr %50, i64 12
  %57 = load float, ptr %56, align 4
  %58 = getelementptr inbounds i8, ptr %50, i64 8
  %59 = load i32, ptr %58, align 4
  %60 = fmul float %57, %7
  %61 = call float @llvm.fmuladd.f32(float %24, float %55, float %60)
  %62 = fpext float %61 to double
  %63 = fmul double %62, 0x3F91DF46A2529D39
  %64 = fptrunc double %63 to float
  %65 = fsub float %57, %55
  %66 = fpext float %65 to double
  %67 = fmul double %66, 0x3F91DF46A2529D39
  %68 = fptrunc double %67 to float
  %69 = fmul float %54, %7
  %70 = call float @llvm.fmuladd.f32(float %24, float %52, float %69)
  %71 = sitofp i32 %59 to float
  %72 = fneg float %64
  %73 = call float @llvm.fmuladd.f32(float %71, float %45, float %72)
  %74 = call noundef float @sinf(float noundef %73) #22
  %75 = fneg float %70
  %76 = fmul float %75, %71
  %77 = fmul float %74, %76
  %78 = call noundef float @cosf(float noundef %73) #22
  %79 = fadd float %78, 1.000000e+00
  %80 = call float @llvm.fmuladd.f32(float %70, float %79, float %.163)
  %81 = fsub float %54, %52
  %82 = fmul float %70, %68
  %83 = fmul float %74, %82
  %84 = call float @llvm.fmuladd.f32(float %81, float %79, float %83)
  %85 = load float, ptr %8, align 4
  %86 = fadd float %85, %84
  store float %86, ptr %8, align 4
  %87 = fadd float %.058, %77
  %indvars.iv.next = add nsw i64 %indvars.iv, 5
  %88 = icmp slt i64 %indvars.iv.next, %25
  br i1 %88, label %89, label %.critedge

89:                                               ; preds = %46
  %90 = getelementptr i8, ptr %47, i64 24
  %91 = load i32, ptr %90, align 4
  %92 = icmp eq i32 %91, %30
  br i1 %92, label %93, label %.critedge

93:                                               ; preds = %89
  %94 = getelementptr i8, ptr %47, i64 28
  %95 = load i32, ptr %94, align 4
  %96 = icmp eq i32 %95, %32
  br i1 %96, label %97, label %.critedge

97:                                               ; preds = %93
  %98 = getelementptr i8, ptr %47, i64 32
  %99 = load i32, ptr %98, align 4
  %100 = icmp eq i32 %99, %34
  br i1 %100, label %101, label %.critedge

101:                                              ; preds = %97
  %102 = getelementptr i8, ptr %47, i64 36
  %103 = load i32, ptr %102, align 4
  %104 = icmp eq i32 %103, %36
  br i1 %104, label %46, label %.critedge, !llvm.loop !190

.critedge:                                        ; preds = %97, %93, %89, %46, %101
  %105 = trunc nsw i64 %indvars.iv.next to i32
  %106 = load i32, ptr %15, align 4
  %107 = load i32, ptr %16, align 4
  %108 = load i32, ptr %17, align 4
  call void @_Z10do_dih_fupIL18BondedKernelFlavor3EEviiiifPfS1_S1_S1_S1_PA4_fPA3_fPK5t_pbcPA3_Kfiii(i32 noundef %30, i32 noundef %32, i32 noundef %34, i32 noundef %36, float noundef %87, ptr noundef nonnull %18, ptr noundef nonnull %19, ptr noundef nonnull %20, ptr noundef nonnull %21, ptr noundef nonnull %22, ptr noundef %4, ptr noundef %5, ptr noundef %6, ptr noundef %3, i32 noundef %106, i32 noundef %107, i32 noundef %108)
  %109 = icmp slt i32 %105, %0
  br i1 %109, label %26, label %._crit_edge, !llvm.loop !191

._crit_edge:                                      ; preds = %.critedge, %14
  %.062.lcssa = phi float [ 0.000000e+00, %14 ], [ %80, %.critedge ]
  ret float %.062.lcssa
}